; Function Attrs: null_pointer_is_valid sspstrong uwtable
define internal fastcc void @update_preauth_hash(ptr noundef %0, ptr noundef readonly captures(none) %1, ptr noundef %2) unnamed_addr #0 {
  %4 = alloca ptr, align 8
  call void @llvm.lifetime.start.p0(i64 8, ptr nonnull %4) #13
  %5 = call i32 @gcry_md_open(ptr noundef nonnull %4, i32 noundef 10, i32 noundef 0)
  %.not = icmp eq i32 %5, 0
  br i1 %.not, label %6, label %21

6:                                                ; preds = %3
  %7 = getelementptr inbounds nuw i8, ptr %1, i64 408
  %8 = load ptr, ptr %7, align 8
  %9 = call i32 @tvb_captured_length(ptr noundef %2)
  %10 = zext i32 %9 to i64
  %11 = call ptr @tvb_memdup(ptr noundef %8, ptr noundef %2, i32 noundef 0, i64 noundef %10)
  %12 = load ptr, ptr %4, align 8
  call void @gcry_md_write(ptr noundef %12, ptr noundef %0, i64 noundef 64)
  %13 = load ptr, ptr %4, align 8
  %14 = call i32 @tvb_captured_length(ptr noundef %2)
  %15 = zext i32 %14 to i64
  call void @gcry_md_write(ptr noundef %13, ptr noundef %11, i64 noundef %15)
  %16 = load ptr, ptr %4, align 8
  %17 = call i32 @gcry_md_ctl(ptr noundef %16, i32 noundef 5, ptr noundef null, i64 noundef 0)
  %18 = load ptr, ptr %4, align 8
  %19 = call ptr @gcry_md_read(ptr noundef %18, i32 noundef 0)
  call void @llvm.memcpy.p0.p0.i64(ptr noundef align 1 dereferenceable(64) %0, ptr noundef align 1 dereferenceable(64) %19, i64 noundef 64, i1 noundef false) #13
  %20 = load ptr, ptr %4, align 8
  call void @gcry_md_close(ptr noundef %20)
  br label %21

21:                                               ; preds = %3, %6
  call void @llvm.lifetime.end.p0(i64 8, ptr nonnull %4) #13
  ret void
}